target datalayout = "e-m:e-p270:32:32-p271:32:32-p272:64:64-i64:64-i128:128-f80:128-n8:16:32:64-S128"
target triple = "x86_64-pc-linux-gnu"

@rb_bool_expected.message = internal constant [36 x i8] c"expected true or false as %s: %+li\0B\00", align 16
@rb_eArgError = external global i64, align 8
@rb_opts_exception_p.kwds = internal constant [1 x i64] [i64 3489], align 8
@.str.19 = private unnamed_addr constant [10 x i8] c"exception\00", align 1

; Function Attrs: inlinehint nounwind sspstrong willreturn memory(none) uwtable
define internal zeroext i1 @RB_NIL_P(i64 noundef %0) #1 {
  %2 = alloca i64, align 8
  store i64 %0, ptr %2, align 8, !tbaa !11
  %3 = load i64, ptr %2, align 8, !tbaa !11
  %4 = icmp eq i64 %3, 4
  ret i1 %4
}

; Function Attrs: nounwind sspstrong uwtable
define hidden i32 @rb_bool_expected(i64 noundef %0, ptr noundef %1, i32 noundef %2) #0 {
  %4 = alloca i32, align 4
  %5 = alloca i64, align 8
  %6 = alloca ptr, align 8
  %7 = alloca i32, align 4
  store i64 %0, ptr %5, align 8, !tbaa !11
  store ptr %1, ptr %6, align 8, !tbaa !50
  store i32 %2, ptr %7, align 4, !tbaa !7
  %8 = load i64, ptr %5, align 8, !tbaa !11
  switch i64 %8, label %11 [
    i64 20, label %9
    i64 0, label %10
  ]

9:                                                ; preds = %3
  store i32 1, ptr %4, align 4
  br label %25

10:                                               ; preds = %3
  store i32 0, ptr %4, align 4
  br label %25

11:                                               ; preds = %3
  %12 = load i32, ptr %7, align 4, !tbaa !7
  %13 = icmp ne i32 %12, 0
  br i1 %13, label %14, label %18

14:                                               ; preds = %11
  %15 = load i64, ptr @rb_eArgError, align 8, !tbaa !11
  %16 = load ptr, ptr %6, align 8, !tbaa !50
  %17 = load i64, ptr %5, align 8, !tbaa !11
  call void (i64, ptr, ...) @rb_raise(i64 noundef %15, ptr noundef @rb_bool_expected.message, ptr noundef %16, i64 noundef %17) #31
  unreachable

18:                                               ; preds = %11
  %19 = load ptr, ptr %6, align 8, !tbaa !50
  %20 = load i64, ptr %5, align 8, !tbaa !11
  call void (ptr, ...) @rb_warning(ptr noundef @rb_bool_expected.message, ptr noundef %19, i64 noundef %20)
  %21 = load i64, ptr %5, align 8, !tbaa !11
  %22 = call zeroext i1 @RB_NIL_P(i64 noundef %21) #27
  %23 = xor i1 %22, true
  %24 = zext i1 %23 to i32
  store i32 %24, ptr %4, align 4
  br label %25

25:                                               ; preds = %18, %10, %9
  %26 = load i32, ptr %4, align 4
  ret i32 %26
}

; Function Attrs: nounwind sspstrong uwtable
define dso_local i32 @rb_opts_exception_p(i64 noundef %0, i32 noundef %1) #0 {
  %3 = alloca i32, align 4
  %4 = alloca i64, align 8
  %5 = alloca i32, align 4
  %6 = alloca i64, align 8
  %7 = alloca i32, align 4
  store i64 %0, ptr %4, align 8, !tbaa !11
  store i32 %1, ptr %5, align 4, !tbaa !7
  call void @llvm.lifetime.start.p0(i64 8, ptr %6) #28
  %8 = load i64, ptr %4, align 8, !tbaa !11
  %9 = call i32 @rb_get_kwargs(i64 noundef %8, ptr noundef @rb_opts_exception_p.kwds, i32 noundef 0, i32 noundef 1, ptr noundef %6)
  %10 = icmp ne i32 %9, 0
  br i1 %10, label %11, label %14

11:                                               ; preds = %2
  %12 = load i64, ptr %6, align 8, !tbaa !11
  %13 = call i32 @rb_bool_expected(i64 noundef %12, ptr noundef @.str.19, i32 noundef 1)
  store i32 %13, ptr %3, align 4
  store i32 1, ptr %7, align 4
  br label %16

14:                                               ; preds = %2
  %15 = load i32, ptr %5, align 4, !tbaa !7
  store i32 %15, ptr %3, align 4
  store i32 1, ptr %7, align 4
  br label %16

16:                                               ; preds = %14, %11
  call void @llvm.lifetime.end.p0(i64 8, ptr %6) #28
  %17 = load i32, ptr %3, align 4
  ret i32 %17
}