; Function Attrs: nounwind sspstrong uwtable
define dso_local noundef i32 @rb_opts_exception_p(i64 noundef %0, i32 noundef %1) local_unnamed_addr #2 {
  %3 = alloca i64, align 8
  call void @llvm.lifetime.start.p0(i64 8, ptr nonnull %3) #23
  %4 = call i32 @rb_get_kwargs(i64 noundef %0, ptr noundef nonnull @rb_opts_exception_p.kwds, i32 noundef 0, i32 noundef 1, ptr noundef nonnull %3) #23
  %.not = icmp eq i32 %4, 0
  br i1 %.not, label %rb_bool_expected.exit, label %5

5:                                                ; preds = %2
  %6 = load i64, ptr %3, align 8, !tbaa !7
  switch i64 %6, label %8 [
    i64 20, label %rb_bool_expected.exit
    i64 0, label %7
  ]

7:                                                ; preds = %5
  br label %rb_bool_expected.exit

8:                                                ; preds = %5
  %9 = load i64, ptr @rb_eArgError, align 8, !tbaa !7
  call void (i64, ptr, ...) @rb_raise(i64 noundef %9, ptr noundef nonnull @rb_bool_expected.message, ptr noundef nonnull @.str.19, i64 noundef %6) #24
  unreachable

rb_bool_expected.exit:                            ; preds = %7, %5, %2
  %.0 = phi i32 [ %1, %2 ], [ 0, %7 ], [ 1, %5 ]
  call void @llvm.lifetime.end.p0(i64 8, ptr nonnull %3) #23
  ret i32 %.0
}